target datalayout = "e-m:e-p270:32:32-p271:32:32-p272:64:64-i64:64-i128:128-f80:128-n8:16:32:64-S128"
target triple = "x86_64-pc-linux-gnu"

%struct.PGShmemHeader = type { i32, i32, i64, i64, i32, ptr, i64, i64 }
%struct.dsm_control_header = type { i32, i32, i32, [0 x %struct.dsm_control_item] }
%struct.dsm_control_item = type { i32, i32, i64, i64, ptr, i8 }

@.str.1 = private unnamed_addr constant [6 x i8] c"dsm.c\00", align 1
@dsm_control_handle = internal global i32 0, align 4
@dsm_control_impl_private = internal global ptr null, align 8
@dsm_control_mapped_size = internal global i64 0, align 8
@dsm_control = internal global ptr null, align 8
@.str.4 = private unnamed_addr constant [61 x i8] c"cleaning up dynamic shared memory control segment with ID %u\00", align 1
@.str.16 = private unnamed_addr constant [49 x i8] c"dynamic shared memory control segment is corrupt\00", align 1
@__func__.dsm_postmaster_shutdown = private unnamed_addr constant [24 x i8] c"dsm_postmaster_shutdown\00", align 1
@.str.17 = private unnamed_addr constant [54 x i8] c"cleaning up orphaned dynamic shared memory with ID %u\00", align 1

; Function Attrs: nounwind uwtable
define internal i64 @dsm_control_bytes_needed(i32 noundef %0) #0 {
  %2 = alloca i32, align 4
  store i32 %0, ptr %2, align 4
  %3 = load i32, ptr %2, align 4
  %4 = zext i32 %3 to i64
  %5 = mul i64 40, %4
  %6 = add i64 16, %5
  ret i64 %6
}

; Function Attrs: inlinehint nounwind uwtable
define internal zeroext i1 @is_main_region_dsm_handle(i32 noundef %0) #4 {
  %2 = alloca i32, align 4
  store i32 %0, ptr %2, align 4
  %3 = load i32, ptr %2, align 4
  %4 = and i32 %3, 1
  %5 = icmp ne i32 %4, 0
  ret i1 %5
}

; Function Attrs: nounwind uwtable
define internal zeroext i1 @dsm_control_segment_sane(ptr noundef %0, i64 noundef %1) #0 {
  %3 = alloca i1, align 1
  %4 = alloca ptr, align 8
  %5 = alloca i64, align 8
  store ptr %0, ptr %4, align 8
  store i64 %1, ptr %5, align 8
  %6 = load i64, ptr %5, align 8
  %7 = icmp ult i64 %6, 16
  br i1 %7, label %8, label %9

8:                                                ; preds = %2
  store i1 false, ptr %3, align 1
  br label %33

9:                                                ; preds = %2
  %10 = load ptr, ptr %4, align 8
  %11 = getelementptr inbounds nuw %struct.dsm_control_header, ptr %10, i32 0, i32 0
  %12 = load i32, ptr %11, align 8
  %13 = icmp ne i32 %12, -1706017486
  br i1 %13, label %14, label %15

14:                                               ; preds = %9
  store i1 false, ptr %3, align 1
  br label %33

15:                                               ; preds = %9
  %16 = load ptr, ptr %4, align 8
  %17 = getelementptr inbounds nuw %struct.dsm_control_header, ptr %16, i32 0, i32 2
  %18 = load i32, ptr %17, align 8
  %19 = call i64 @dsm_control_bytes_needed(i32 noundef %18)
  %20 = load i64, ptr %5, align 8
  %21 = icmp ugt i64 %19, %20
  br i1 %21, label %22, label %23

22:                                               ; preds = %15
  store i1 false, ptr %3, align 1
  br label %33

23:                                               ; preds = %15
  %24 = load ptr, ptr %4, align 8
  %25 = getelementptr inbounds nuw %struct.dsm_control_header, ptr %24, i32 0, i32 1
  %26 = load i32, ptr %25, align 4
  %27 = load ptr, ptr %4, align 8
  %28 = getelementptr inbounds nuw %struct.dsm_control_header, ptr %27, i32 0, i32 2
  %29 = load i32, ptr %28, align 8
  %30 = icmp ugt i32 %26, %29
  br i1 %30, label %31, label %32

31:                                               ; preds = %23
  store i1 false, ptr %3, align 1
  br label %33

32:                                               ; preds = %23
  store i1 true, ptr %3, align 1
  br label %33

33:                                               ; preds = %32, %31, %22, %14, %8
  %34 = load i1, ptr %3, align 1
  ret i1 %34
}

; Function Attrs: inlinehint nounwind uwtable
define internal ptr @DatumGetPointer(i64 noundef %0) #4 {
  %2 = alloca i64, align 8
  store i64 %0, ptr %2, align 8
  %3 = load i64, ptr %2, align 8
  %4 = inttoptr i64 %3 to ptr
  ret ptr %4
}

; Function Attrs: nounwind uwtable
define internal void @dsm_postmaster_shutdown(i32 noundef %0, i64 noundef %1) #0 {
  %3 = alloca i32, align 4
  %4 = alloca i64, align 8
  %5 = alloca i32, align 4
  %6 = alloca i32, align 4
  %7 = alloca ptr, align 8
  %8 = alloca ptr, align 8
  %9 = alloca ptr, align 8
  %10 = alloca i64, align 8
  %11 = alloca ptr, align 8
  %12 = alloca i32, align 4
  %13 = alloca i32, align 4
  store i32 %0, ptr %3, align 4
  store i64 %1, ptr %4, align 8
  call void @llvm.lifetime.start.p0(i64 4, ptr %5) #8
  call void @llvm.lifetime.start.p0(i64 4, ptr %6) #8
  call void @llvm.lifetime.start.p0(i64 8, ptr %7) #8
  call void @llvm.lifetime.start.p0(i64 8, ptr %8) #8
  store ptr null, ptr %8, align 8
  call void @llvm.lifetime.start.p0(i64 8, ptr %9) #8
  store ptr null, ptr %9, align 8
  call void @llvm.lifetime.start.p0(i64 8, ptr %10) #8
  store i64 0, ptr %10, align 8
  call void @llvm.lifetime.start.p0(i64 8, ptr %11) #8
  %14 = load i64, ptr %4, align 8
  %15 = call ptr @DatumGetPointer(i64 noundef %14)
  store ptr %15, ptr %11, align 8
  %16 = load ptr, ptr @dsm_control, align 8
  %17 = getelementptr inbounds nuw %struct.dsm_control_header, ptr %16, i32 0, i32 1
  %18 = load i32, ptr %17, align 4
  store i32 %18, ptr %5, align 4
  %19 = load ptr, ptr @dsm_control, align 8
  %20 = load i64, ptr @dsm_control_mapped_size, align 8
  %21 = call zeroext i1 @dsm_control_segment_sane(ptr noundef %19, i64 noundef %20)
  br i1 %21, label %33, label %22

22:                                               ; preds = %2
  br label %23

23:                                               ; preds = %22
  br i1 false, label %24, label %26

24:                                               ; preds = %23
  %25 = call zeroext i1 @errstart_cold(i32 noundef 15, ptr noundef null) #9
  br i1 %25, label %28, label %30

26:                                               ; preds = %23
  %27 = call zeroext i1 @errstart(i32 noundef 15, ptr noundef null)
  br i1 %27, label %28, label %30

28:                                               ; preds = %26, %24
  %29 = call i32 (ptr, ...) @errmsg(ptr noundef @.str.16)
  call void @errfinish(ptr noundef @.str.1, i32 noundef 379, ptr noundef @__func__.dsm_postmaster_shutdown)
  br label %30

30:                                               ; preds = %28, %26, %24
  br label %31

31:                                               ; preds = %30
  br label %32

32:                                               ; preds = %31
  store i32 1, ptr %12, align 4
  br label %97

33:                                               ; preds = %2
  store i32 0, ptr %6, align 4
  br label %34

34:                                               ; preds = %76, %33
  %35 = load i32, ptr %6, align 4
  %36 = load i32, ptr %5, align 4
  %37 = icmp ult i32 %35, %36
  br i1 %37, label %38, label %79

38:                                               ; preds = %34
  call void @llvm.lifetime.start.p0(i64 4, ptr %13) #8
  %39 = load ptr, ptr @dsm_control, align 8
  %40 = getelementptr inbounds nuw %struct.dsm_control_header, ptr %39, i32 0, i32 3
  %41 = load i32, ptr %6, align 4
  %42 = zext i32 %41 to i64
  %43 = getelementptr inbounds nuw [0 x %struct.dsm_control_item], ptr %40, i64 0, i64 %42
  %44 = getelementptr inbounds nuw %struct.dsm_control_item, ptr %43, i32 0, i32 1
  %45 = load i32, ptr %44, align 4
  %46 = icmp eq i32 %45, 0
  br i1 %46, label %47, label %48

47:                                               ; preds = %38
  store i32 6, ptr %12, align 4
  br label %73

48:                                               ; preds = %38
  %49 = load ptr, ptr @dsm_control, align 8
  %50 = getelementptr inbounds nuw %struct.dsm_control_header, ptr %49, i32 0, i32 3
  %51 = load i32, ptr %6, align 4
  %52 = zext i32 %51 to i64
  %53 = getelementptr inbounds nuw [0 x %struct.dsm_control_item], ptr %50, i64 0, i64 %52
  %54 = getelementptr inbounds nuw %struct.dsm_control_item, ptr %53, i32 0, i32 0
  %55 = load i32, ptr %54, align 8
  store i32 %55, ptr %13, align 4
  %56 = load i32, ptr %13, align 4
  %57 = call zeroext i1 @is_main_region_dsm_handle(i32 noundef %56)
  br i1 %57, label %58, label %59

58:                                               ; preds = %48
  store i32 6, ptr %12, align 4
  br label %73

59:                                               ; preds = %48
  br label %60

60:                                               ; preds = %59
  br i1 false, label %61, label %63

61:                                               ; preds = %60
  %62 = call zeroext i1 @errstart_cold(i32 noundef 13, ptr noundef null) #9
  br i1 %62, label %65, label %68

63:                                               ; preds = %60
  %64 = call zeroext i1 @errstart(i32 noundef 13, ptr noundef null)
  br i1 %64, label %65, label %68

65:                                               ; preds = %63, %61
  %66 = load i32, ptr %13, align 4
  %67 = call i32 (ptr, ...) @errmsg_internal(ptr noundef @.str.17, i32 noundef %66)
  call void @errfinish(ptr noundef @.str.1, i32 noundef 398, ptr noundef @__func__.dsm_postmaster_shutdown)
  br label %68

68:                                               ; preds = %65, %63, %61
  br label %69

69:                                               ; preds = %68
  br label %70

70:                                               ; preds = %69
  %71 = load i32, ptr %13, align 4
  %72 = call zeroext i1 @dsm_impl_op(i32 noundef 3, i32 noundef %71, i64 noundef 0, ptr noundef %9, ptr noundef %8, ptr noundef %10, i32 noundef 15)
  store i32 0, ptr %12, align 4
  br label %73

73:                                               ; preds = %70, %58, %47
  call void @llvm.lifetime.end.p0(i64 4, ptr %13) #8
  %74 = load i32, ptr %12, align 4
  switch i32 %74, label %100 [
    i32 0, label %75
    i32 6, label %76
  ]

75:                                               ; preds = %73
  br label %76

76:                                               ; preds = %75, %73
  %77 = load i32, ptr %6, align 4
  %78 = add i32 %77, 1
  store i32 %78, ptr %6, align 4
  br label %34, !llvm.loop !6

79:                                               ; preds = %34
  br label %80

80:                                               ; preds = %79
  br i1 false, label %81, label %83

81:                                               ; preds = %80
  %82 = call zeroext i1 @errstart_cold(i32 noundef 13, ptr noundef null) #9
  br i1 %82, label %85, label %88

83:                                               ; preds = %80
  %84 = call zeroext i1 @errstart(i32 noundef 13, ptr noundef null)
  br i1 %84, label %85, label %88

85:                                               ; preds = %83, %81
  %86 = load i32, ptr @dsm_control_handle, align 4
  %87 = call i32 (ptr, ...) @errmsg_internal(ptr noundef @.str.4, i32 noundef %86)
  call void @errfinish(ptr noundef @.str.1, i32 noundef 408, ptr noundef @__func__.dsm_postmaster_shutdown)
  br label %88

88:                                               ; preds = %85, %83, %81
  br label %89

89:                                               ; preds = %88
  br label %90

90:                                               ; preds = %89
  %91 = load ptr, ptr @dsm_control, align 8
  store ptr %91, ptr %7, align 8
  %92 = load i32, ptr @dsm_control_handle, align 4
  %93 = call zeroext i1 @dsm_impl_op(i32 noundef 3, i32 noundef %92, i64 noundef 0, ptr noundef @dsm_control_impl_private, ptr noundef %7, ptr noundef @dsm_control_mapped_size, i32 noundef 15)
  %94 = load ptr, ptr %7, align 8
  store ptr %94, ptr @dsm_control, align 8
  %95 = load ptr, ptr %11, align 8
  %96 = getelementptr inbounds nuw %struct.PGShmemHeader, ptr %95, i32 0, i32 4
  store i32 0, ptr %96, align 8
  store i32 0, ptr %12, align 4
  br label %97

97:                                               ; preds = %90, %32
  call void @llvm.lifetime.end.p0(i64 8, ptr %11) #8
  call void @llvm.lifetime.end.p0(i64 8, ptr %10) #8
  call void @llvm.lifetime.end.p0(i64 8, ptr %9) #8
  call void @llvm.lifetime.end.p0(i64 8, ptr %8) #8
  call void @llvm.lifetime.end.p0(i64 8, ptr %7) #8
  call void @llvm.lifetime.end.p0(i64 4, ptr %6) #8
  call void @llvm.lifetime.end.p0(i64 4, ptr %5) #8
  %98 = load i32, ptr %12, align 4
  switch i32 %98, label %100 [
    i32 0, label %99
    i32 1, label %99
  ]

99:                                               ; preds = %97, %97
  ret void

100:                                              ; preds = %97, %73
  unreachable
}