; Function Attrs: nounwind uwtable
define internal void @dsm_postmaster_shutdown(i32 %0, i64 noundef %1) #0 {
  %3 = alloca ptr, align 8
  %4 = alloca ptr, align 8
  %5 = alloca ptr, align 8
  %6 = alloca i64, align 8
  call void @llvm.lifetime.start.p0(i64 8, ptr nonnull %3) #12
  call void @llvm.lifetime.start.p0(i64 8, ptr nonnull %4) #12
  store ptr null, ptr %4, align 8
  call void @llvm.lifetime.start.p0(i64 8, ptr nonnull %5) #12
  store ptr null, ptr %5, align 8
  call void @llvm.lifetime.start.p0(i64 8, ptr nonnull %6) #12
  store i64 0, ptr %6, align 8
  %7 = inttoptr i64 %1 to ptr
  %8 = load ptr, ptr @dsm_control, align 8
  %9 = getelementptr inbounds nuw i8, ptr %8, i64 4
  %10 = load i32, ptr %9, align 4
  %11 = load i64, ptr @dsm_control_mapped_size, align 8
  %12 = icmp ult i64 %11, 16
  br i1 %12, label %dsm_control_segment_sane.exit.thread, label %13

13:                                               ; preds = %2
  %14 = load i32, ptr %8, align 8
  %.not.i = icmp eq i32 %14, -1706017486
  br i1 %.not.i, label %15, label %dsm_control_segment_sane.exit.thread

15:                                               ; preds = %13
  %16 = getelementptr inbounds nuw i8, ptr %8, i64 8
  %17 = load i32, ptr %16, align 8
  %18 = zext i32 %17 to i64
  %19 = mul nuw nsw i64 %18, 40
  %20 = add nuw nsw i64 %19, 16
  %21 = icmp ule i64 %20, %11
  %22 = icmp ule i32 %10, %17
  %or.cond = select i1 %21, i1 %22, i1 false
  br i1 %or.cond, label %.preheader, label %dsm_control_segment_sane.exit.thread

.preheader:                                       ; preds = %15
  %.not11 = icmp eq i32 %10, 0
  br i1 %.not11, label %._crit_edge, label %.lr.ph.preheader

.lr.ph.preheader:                                 ; preds = %.preheader
  %wide.trip.count = zext i32 %10 to i64
  br label %.lr.ph

dsm_control_segment_sane.exit.thread:             ; preds = %15, %13, %2
  %23 = tail call zeroext i1 @errstart(i32 noundef 15, ptr noundef null) #12
  br i1 %23, label %24, label %53

24:                                               ; preds = %dsm_control_segment_sane.exit.thread
  %25 = tail call i32 (ptr, ...) @errmsg(ptr noundef nonnull @.str.16) #12
  tail call void @errfinish(ptr noundef nonnull @.str.1, i32 noundef 379, ptr noundef nonnull @__func__.dsm_postmaster_shutdown) #12
  br label %53

.lr.ph:                                           ; preds = %.lr.ph.preheader, %41
  %26 = phi ptr [ %8, %.lr.ph.preheader ], [ %42, %41 ]
  %indvars.iv = phi i64 [ 0, %.lr.ph.preheader ], [ %indvars.iv.next, %41 ]
  %27 = getelementptr inbounds nuw i8, ptr %26, i64 16
  %28 = getelementptr inbounds nuw [0 x %struct.dsm_control_item], ptr %27, i64 0, i64 %indvars.iv
  %29 = getelementptr inbounds nuw i8, ptr %28, i64 4
  %30 = load i32, ptr %29, align 4
  %31 = icmp eq i32 %30, 0
  br i1 %31, label %41, label %32

32:                                               ; preds = %.lr.ph
  %33 = load i32, ptr %28, align 8
  %34 = and i32 %33, 1
  %.not = icmp eq i32 %34, 0
  br i1 %.not, label %35, label %41

35:                                               ; preds = %32
  %36 = call zeroext i1 @errstart(i32 noundef 13, ptr noundef null) #12
  br i1 %36, label %37, label %39

37:                                               ; preds = %35
  %38 = call i32 (ptr, ...) @errmsg_internal(ptr noundef nonnull @.str.17, i32 noundef %33) #12
  call void @errfinish(ptr noundef nonnull @.str.1, i32 noundef 398, ptr noundef nonnull @__func__.dsm_postmaster_shutdown) #12
  br label %39

39:                                               ; preds = %37, %35
  %40 = call zeroext i1 @dsm_impl_op(i32 noundef 3, i32 noundef %33, i64 noundef 0, ptr noundef nonnull %5, ptr noundef nonnull %4, ptr noundef nonnull %6, i32 noundef 15) #12
  %.pre = load ptr, ptr @dsm_control, align 8
  br label %41

41:                                               ; preds = %32, %.lr.ph, %39
  %42 = phi ptr [ %26, %32 ], [ %26, %.lr.ph ], [ %.pre, %39 ]
  %indvars.iv.next = add nuw nsw i64 %indvars.iv, 1
  %exitcond.not = icmp eq i64 %indvars.iv.next, %wide.trip.count
  br i1 %exitcond.not, label %._crit_edge, label %.lr.ph, !llvm.loop !6

._crit_edge:                                      ; preds = %41, %.preheader
  %43 = call zeroext i1 @errstart(i32 noundef 13, ptr noundef null) #12
  br i1 %43, label %44, label %47

44:                                               ; preds = %._crit_edge
  %45 = load i32, ptr @dsm_control_handle, align 4
  %46 = call i32 (ptr, ...) @errmsg_internal(ptr noundef nonnull @.str.4, i32 noundef %45) #12
  call void @errfinish(ptr noundef nonnull @.str.1, i32 noundef 408, ptr noundef nonnull @__func__.dsm_postmaster_shutdown) #12
  br label %47

47:                                               ; preds = %44, %._crit_edge
  %48 = load ptr, ptr @dsm_control, align 8
  store ptr %48, ptr %3, align 8
  %49 = load i32, ptr @dsm_control_handle, align 4
  %50 = call zeroext i1 @dsm_impl_op(i32 noundef 3, i32 noundef %49, i64 noundef 0, ptr noundef nonnull @dsm_control_impl_private, ptr noundef nonnull %3, ptr noundef nonnull @dsm_control_mapped_size, i32 noundef 15) #12
  %51 = load ptr, ptr %3, align 8
  store ptr %51, ptr @dsm_control, align 8
  %52 = getelementptr inbounds nuw i8, ptr %7, i64 24
  store i32 0, ptr %52, align 8
  br label %53

53:                                               ; preds = %dsm_control_segment_sane.exit.thread, %24, %47
  call void @llvm.lifetime.end.p0(i64 8, ptr nonnull %6) #12
  call void @llvm.lifetime.end.p0(i64 8, ptr nonnull %5) #12
  call void @llvm.lifetime.end.p0(i64 8, ptr nonnull %4) #12
  call void @llvm.lifetime.end.p0(i64 8, ptr nonnull %3) #12
  ret void
}